target datalayout = "e-m:e-p270:32:32-p271:32:32-p272:64:64-i64:64-i128:128-f80:128-n8:16:32:64-S128"
target triple = "x86_64-pc-linux-gnu"

%struct.FSMAddress = type { i32, i32 }
%struct.FSMPageData = type { i32, [0 x i8] }

@LocalBufferBlockPointers = external global ptr, align 8
@BufferBlocks = external global ptr, align 8
@InterruptPending = external global i32, align 4

; Function Attrs: inlinehint nounwind uwtable
define internal ptr @BufferGetBlock(i32 noundef %0) #4 {
  %2 = alloca ptr, align 8
  %3 = alloca i32, align 4
  store i32 %0, ptr %3, align 4
  %4 = load i32, ptr %3, align 4
  %5 = icmp slt i32 %4, 0
  br i1 %5, label %6, label %14

6:                                                ; preds = %1
  %7 = load ptr, ptr @LocalBufferBlockPointers, align 8
  %8 = load i32, ptr %3, align 4
  %9 = sub i32 0, %8
  %10 = sub i32 %9, 1
  %11 = sext i32 %10 to i64
  %12 = getelementptr inbounds ptr, ptr %7, i64 %11
  %13 = load ptr, ptr %12, align 8
  store ptr %13, ptr %2, align 8
  br label %21

14:                                               ; preds = %1
  %15 = load ptr, ptr @BufferBlocks, align 8
  %16 = load i32, ptr %3, align 4
  %17 = sub i32 %16, 1
  %18 = sext i32 %17 to i64
  %19 = mul i64 %18, 8192
  %20 = getelementptr inbounds nuw i8, ptr %15, i64 %19
  store ptr %20, ptr %2, align 8
  br label %21

21:                                               ; preds = %14, %6
  %22 = load ptr, ptr %2, align 8
  ret ptr %22
}

; Function Attrs: inlinehint nounwind uwtable
define internal ptr @PageGetContents(ptr noundef %0) #4 {
  %2 = alloca ptr, align 8
  store ptr %0, ptr %2, align 8
  %3 = load ptr, ptr %2, align 8
  %4 = getelementptr inbounds nuw i8, ptr %3, i64 24
  ret ptr %4
}

; Function Attrs: nounwind uwtable
define internal i64 @fsm_get_child(i64 %0, i16 noundef zeroext %1) #0 {
  %3 = alloca %struct.FSMAddress, align 4
  %4 = alloca %struct.FSMAddress, align 4
  %5 = alloca i16, align 2
  store i64 %0, ptr %4, align 4
  store i16 %1, ptr %5, align 2
  %6 = getelementptr inbounds nuw %struct.FSMAddress, ptr %4, i32 0, i32 0
  %7 = load i32, ptr %6, align 4
  %8 = sub i32 %7, 1
  %9 = getelementptr inbounds nuw %struct.FSMAddress, ptr %3, i32 0, i32 0
  store i32 %8, ptr %9, align 4
  %10 = getelementptr inbounds nuw %struct.FSMAddress, ptr %4, i32 0, i32 1
  %11 = load i32, ptr %10, align 4
  %12 = sext i32 %11 to i64
  %13 = mul i64 %12, 4069
  %14 = load i16, ptr %5, align 2
  %15 = zext i16 %14 to i64
  %16 = add i64 %13, %15
  %17 = trunc i64 %16 to i32
  %18 = getelementptr inbounds nuw %struct.FSMAddress, ptr %3, i32 0, i32 1
  store i32 %17, ptr %18, align 4
  %19 = load i64, ptr %3, align 4
  ret i64 %19
}

; Function Attrs: nounwind uwtable
define internal i64 @fsm_get_parent(i64 %0, ptr noundef %1) #0 {
  %3 = alloca %struct.FSMAddress, align 4
  %4 = alloca %struct.FSMAddress, align 4
  %5 = alloca ptr, align 8
  store i64 %0, ptr %4, align 4
  store ptr %1, ptr %5, align 8
  %6 = getelementptr inbounds nuw %struct.FSMAddress, ptr %4, i32 0, i32 0
  %7 = load i32, ptr %6, align 4
  %8 = add i32 %7, 1
  %9 = getelementptr inbounds nuw %struct.FSMAddress, ptr %3, i32 0, i32 0
  store i32 %8, ptr %9, align 4
  %10 = getelementptr inbounds nuw %struct.FSMAddress, ptr %4, i32 0, i32 1
  %11 = load i32, ptr %10, align 4
  %12 = sext i32 %11 to i64
  %13 = udiv i64 %12, 4069
  %14 = trunc i64 %13 to i32
  %15 = getelementptr inbounds nuw %struct.FSMAddress, ptr %3, i32 0, i32 1
  store i32 %14, ptr %15, align 4
  %16 = getelementptr inbounds nuw %struct.FSMAddress, ptr %4, i32 0, i32 1
  %17 = load i32, ptr %16, align 4
  %18 = sext i32 %17 to i64
  %19 = urem i64 %18, 4069
  %20 = trunc i64 %19 to i16
  %21 = load ptr, ptr %5, align 8
  store i16 %20, ptr %21, align 2
  %22 = load i64, ptr %3, align 4
  ret i64 %22
}

; Function Attrs: nounwind uwtable
define internal i64 @fsm_get_location(i32 noundef %0, ptr noundef %1) #0 {
  %3 = alloca %struct.FSMAddress, align 4
  %4 = alloca i32, align 4
  %5 = alloca ptr, align 8
  store i32 %0, ptr %4, align 4
  store ptr %1, ptr %5, align 8
  %6 = getelementptr inbounds nuw %struct.FSMAddress, ptr %3, i32 0, i32 0
  store i32 0, ptr %6, align 4
  %7 = load i32, ptr %4, align 4
  %8 = zext i32 %7 to i64
  %9 = udiv i64 %8, 4069
  %10 = trunc i64 %9 to i32
  %11 = getelementptr inbounds nuw %struct.FSMAddress, ptr %3, i32 0, i32 1
  store i32 %10, ptr %11, align 4
  %12 = load i32, ptr %4, align 4
  %13 = zext i32 %12 to i64
  %14 = urem i64 %13, 4069
  %15 = trunc i64 %14 to i16
  %16 = load ptr, ptr %5, align 8
  store i16 %15, ptr %16, align 2
  %17 = load i64, ptr %3, align 4
  ret i64 %17
}

; Function Attrs: inlinehint nounwind uwtable
define internal ptr @BufferGetPage(i32 noundef %0) #4 {
  %2 = alloca i32, align 4
  store i32 %0, ptr %2, align 4
  %3 = load i32, ptr %2, align 4
  %4 = call ptr @BufferGetBlock(i32 noundef %3)
  ret ptr %4
}

; Function Attrs: inlinehint nounwind uwtable
define internal zeroext i1 @BufferIsValid(i32 noundef %0) #4 {
  %2 = alloca i32, align 4
  store i32 %0, ptr %2, align 4
  %3 = load i32, ptr %2, align 4
  %4 = icmp ne i32 %3, 0
  ret i1 %4
}

; Function Attrs: nounwind uwtable
define internal zeroext i8 @fsm_vacuum_page(ptr noundef %0, i64 %1, i32 noundef %2, i32 noundef %3, ptr noundef %4) #0 {
  %6 = alloca i8, align 1
  %7 = alloca %struct.FSMAddress, align 4
  %8 = alloca ptr, align 8
  %9 = alloca i32, align 4
  %10 = alloca i32, align 4
  %11 = alloca ptr, align 8
  %12 = alloca i32, align 4
  %13 = alloca ptr, align 8
  %14 = alloca i8, align 1
  %15 = alloca i32, align 4
  %16 = alloca %struct.FSMAddress, align 4
  %17 = alloca %struct.FSMAddress, align 4
  %18 = alloca i16, align 2
  %19 = alloca i16, align 2
  %20 = alloca i32, align 4
  %21 = alloca i32, align 4
  %22 = alloca i32, align 4
  %23 = alloca i8, align 1
  %24 = alloca %struct.FSMAddress, align 4
  %25 = alloca %struct.FSMAddress, align 4
  %26 = alloca %struct.FSMAddress, align 4
  %27 = alloca %struct.FSMAddress, align 4
  %28 = alloca i32, align 4
  %29 = alloca %struct.FSMAddress, align 4
  store i64 %1, ptr %7, align 4
  store ptr %0, ptr %8, align 8
  store i32 %2, ptr %9, align 4
  store i32 %3, ptr %10, align 4
  store ptr %4, ptr %11, align 8
  call void @llvm.lifetime.start.p0(i64 4, ptr %12) #8
  call void @llvm.lifetime.start.p0(i64 8, ptr %13) #8
  call void @llvm.lifetime.start.p0(i64 1, ptr %14) #8
  %30 = load ptr, ptr %8, align 8
  %31 = load i64, ptr %7, align 4
  %32 = call i32 @fsm_readbuf(ptr noundef %30, i64 %31, i1 noundef zeroext false)
  store i32 %32, ptr %12, align 4
  %33 = load i32, ptr %12, align 4
  %34 = call zeroext i1 @BufferIsValid(i32 noundef %33)
  br i1 %34, label %37, label %35

35:                                               ; preds = %5
  %36 = load ptr, ptr %11, align 8
  store i8 1, ptr %36, align 1
  store i8 0, ptr %6, align 1
  store i32 1, ptr %15, align 4
  br label %159

37:                                               ; preds = %5
  %38 = load ptr, ptr %11, align 8
  store i8 0, ptr %38, align 1
  br label %39

39:                                               ; preds = %37
  %40 = load i32, ptr %12, align 4
  %41 = call ptr @BufferGetPage(i32 noundef %40)
  store ptr %41, ptr %13, align 8
  %42 = getelementptr inbounds nuw %struct.FSMAddress, ptr %7, i32 0, i32 0
  %43 = load i32, ptr %42, align 4
  %44 = icmp sgt i32 %43, 0
  br i1 %44, label %45, label %151

45:                                               ; preds = %39
  call void @llvm.lifetime.start.p0(i64 8, ptr %16) #8
  call void @llvm.lifetime.start.p0(i64 8, ptr %17) #8
  call void @llvm.lifetime.start.p0(i64 2, ptr %18) #8
  call void @llvm.lifetime.start.p0(i64 2, ptr %19) #8
  call void @llvm.lifetime.start.p0(i64 4, ptr %20) #8
  call void @llvm.lifetime.start.p0(i64 4, ptr %21) #8
  call void @llvm.lifetime.start.p0(i64 4, ptr %22) #8
  call void @llvm.lifetime.start.p0(i64 1, ptr %23) #8
  store i8 0, ptr %23, align 1
  call void @llvm.lifetime.start.p0(i64 8, ptr %24) #8
  %46 = load i32, ptr %9, align 4
  %47 = call i64 @fsm_get_location(i32 noundef %46, ptr noundef %18)
  store i64 %47, ptr %24, align 4
  call void @llvm.memcpy.p0.p0.i64(ptr align 4 %16, ptr align 4 %24, i64 8, i1 false)
  call void @llvm.lifetime.end.p0(i64 8, ptr %24) #8
  call void @llvm.lifetime.start.p0(i64 8, ptr %25) #8
  %48 = load i32, ptr %10, align 4
  %49 = sub i32 %48, 1
  %50 = call i64 @fsm_get_location(i32 noundef %49, ptr noundef %19)
  store i64 %50, ptr %25, align 4
  call void @llvm.memcpy.p0.p0.i64(ptr align 4 %17, ptr align 4 %25, i64 8, i1 false)
  call void @llvm.lifetime.end.p0(i64 8, ptr %25) #8
  br label %51

51:                                               ; preds = %57, %45
  %52 = getelementptr inbounds nuw %struct.FSMAddress, ptr %16, i32 0, i32 0
  %53 = load i32, ptr %52, align 4
  %54 = getelementptr inbounds nuw %struct.FSMAddress, ptr %7, i32 0, i32 0
  %55 = load i32, ptr %54, align 4
  %56 = icmp slt i32 %53, %55
  br i1 %56, label %57, label %62

57:                                               ; preds = %51
  call void @llvm.lifetime.start.p0(i64 8, ptr %26) #8
  %58 = load i64, ptr %16, align 4
  %59 = call i64 @fsm_get_parent(i64 %58, ptr noundef %18)
  store i64 %59, ptr %26, align 4
  call void @llvm.memcpy.p0.p0.i64(ptr align 4 %16, ptr align 4 %26, i64 8, i1 false)
  call void @llvm.lifetime.end.p0(i64 8, ptr %26) #8
  call void @llvm.lifetime.start.p0(i64 8, ptr %27) #8
  %60 = load i64, ptr %17, align 4
  %61 = call i64 @fsm_get_parent(i64 %60, ptr noundef %19)
  store i64 %61, ptr %27, align 4
  call void @llvm.memcpy.p0.p0.i64(ptr align 4 %17, ptr align 4 %27, i64 8, i1 false)
  call void @llvm.lifetime.end.p0(i64 8, ptr %27) #8
  br label %51, !llvm.loop !9

62:                                               ; preds = %51
  %63 = getelementptr inbounds nuw %struct.FSMAddress, ptr %16, i32 0, i32 1
  %64 = load i32, ptr %63, align 4
  %65 = getelementptr inbounds nuw %struct.FSMAddress, ptr %7, i32 0, i32 1
  %66 = load i32, ptr %65, align 4
  %67 = icmp eq i32 %64, %66
  br i1 %67, label %68, label %71

68:                                               ; preds = %62
  %69 = load i16, ptr %18, align 2
  %70 = zext i16 %69 to i32
  store i32 %70, ptr %21, align 4
  br label %80

71:                                               ; preds = %62
  %72 = getelementptr inbounds nuw %struct.FSMAddress, ptr %16, i32 0, i32 1
  %73 = load i32, ptr %72, align 4
  %74 = getelementptr inbounds nuw %struct.FSMAddress, ptr %7, i32 0, i32 1
  %75 = load i32, ptr %74, align 4
  %76 = icmp sgt i32 %73, %75
  br i1 %76, label %77, label %78

77:                                               ; preds = %71
  store i32 4069, ptr %21, align 4
  br label %79

78:                                               ; preds = %71
  store i32 0, ptr %21, align 4
  br label %79

79:                                               ; preds = %78, %77
  br label %80

80:                                               ; preds = %79, %68
  %81 = getelementptr inbounds nuw %struct.FSMAddress, ptr %17, i32 0, i32 1
  %82 = load i32, ptr %81, align 4
  %83 = getelementptr inbounds nuw %struct.FSMAddress, ptr %7, i32 0, i32 1
  %84 = load i32, ptr %83, align 4
  %85 = icmp eq i32 %82, %84
  br i1 %85, label %86, label %89

86:                                               ; preds = %80
  %87 = load i16, ptr %19, align 2
  %88 = zext i16 %87 to i32
  store i32 %88, ptr %22, align 4
  br label %98

89:                                               ; preds = %80
  %90 = getelementptr inbounds nuw %struct.FSMAddress, ptr %17, i32 0, i32 1
  %91 = load i32, ptr %90, align 4
  %92 = getelementptr inbounds nuw %struct.FSMAddress, ptr %7, i32 0, i32 1
  %93 = load i32, ptr %92, align 4
  %94 = icmp sgt i32 %91, %93
  br i1 %94, label %95, label %96

95:                                               ; preds = %89
  store i32 4068, ptr %22, align 4
  br label %97

96:                                               ; preds = %89
  store i32 -1, ptr %22, align 4
  br label %97

97:                                               ; preds = %96, %95
  br label %98

98:                                               ; preds = %97, %86
  %99 = load i32, ptr %21, align 4
  store i32 %99, ptr %20, align 4
  br label %100

100:                                              ; preds = %147, %98
  %101 = load i32, ptr %20, align 4
  %102 = load i32, ptr %22, align 4
  %103 = icmp sle i32 %101, %102
  br i1 %103, label %104, label %150

104:                                              ; preds = %100
  call void @llvm.lifetime.start.p0(i64 4, ptr %28) #8
  br label %105

105:                                              ; preds = %104
  %106 = load volatile i32, ptr @InterruptPending, align 4
  %107 = icmp ne i32 %106, 0
  %108 = zext i1 %107 to i32
  %109 = sext i32 %108 to i64
  %110 = call i64 @llvm.expect.i64(i64 %109, i64 0)
  %111 = icmp ne i64 %110, 0
  br i1 %111, label %112, label %113

112:                                              ; preds = %105
  call void @ProcessInterrupts()
  br label %113

113:                                              ; preds = %112, %105
  br label %114

114:                                              ; preds = %113
  br label %115

115:                                              ; preds = %114
  %116 = load i8, ptr %23, align 1, !range !7, !noundef !8
  %117 = trunc i8 %116 to i1
  br i1 %117, label %129, label %118

118:                                              ; preds = %115
  %119 = load ptr, ptr %8, align 8
  %120 = load i32, ptr %20, align 4
  %121 = trunc i32 %120 to i16
  %122 = load i64, ptr %7, align 4
  %123 = call i64 @fsm_get_child(i64 %122, i16 noundef zeroext %121)
  store i64 %123, ptr %29, align 4
  %124 = load i32, ptr %9, align 4
  %125 = load i32, ptr %10, align 4
  %126 = load i64, ptr %29, align 4
  %127 = call zeroext i8 @fsm_vacuum_page(ptr noundef %119, i64 %126, i32 noundef %124, i32 noundef %125, ptr noundef %23)
  %128 = zext i8 %127 to i32
  store i32 %128, ptr %28, align 4
  br label %130

129:                                              ; preds = %115
  store i32 0, ptr %28, align 4
  br label %130

130:                                              ; preds = %129, %118
  %131 = load ptr, ptr %13, align 8
  %132 = load i32, ptr %20, align 4
  %133 = call zeroext i8 @fsm_get_avail(ptr noundef %131, i32 noundef %132)
  %134 = zext i8 %133 to i32
  %135 = load i32, ptr %28, align 4
  %136 = icmp ne i32 %134, %135
  br i1 %136, label %137, label %146

137:                                              ; preds = %130
  %138 = load i32, ptr %12, align 4
  call void @LockBuffer(i32 noundef %138, i32 noundef 2)
  %139 = load ptr, ptr %13, align 8
  %140 = load i32, ptr %20, align 4
  %141 = load i32, ptr %28, align 4
  %142 = trunc i32 %141 to i8
  %143 = call zeroext i1 @fsm_set_avail(ptr noundef %139, i32 noundef %140, i8 noundef zeroext %142)
  %144 = load i32, ptr %12, align 4
  call void @MarkBufferDirtyHint(i32 noundef %144, i1 noundef zeroext false)
  %145 = load i32, ptr %12, align 4
  call void @LockBuffer(i32 noundef %145, i32 noundef 0)
  br label %146

146:                                              ; preds = %137, %130
  call void @llvm.lifetime.end.p0(i64 4, ptr %28) #8
  br label %147

147:                                              ; preds = %146
  %148 = load i32, ptr %20, align 4
  %149 = add i32 %148, 1
  store i32 %149, ptr %20, align 4
  br label %100, !llvm.loop !10

150:                                              ; preds = %100
  call void @llvm.lifetime.end.p0(i64 1, ptr %23) #8
  call void @llvm.lifetime.end.p0(i64 4, ptr %22) #8
  call void @llvm.lifetime.end.p0(i64 4, ptr %21) #8
  call void @llvm.lifetime.end.p0(i64 4, ptr %20) #8
  call void @llvm.lifetime.end.p0(i64 2, ptr %19) #8
  call void @llvm.lifetime.end.p0(i64 2, ptr %18) #8
  call void @llvm.lifetime.end.p0(i64 8, ptr %17) #8
  call void @llvm.lifetime.end.p0(i64 8, ptr %16) #8
  br label %151

151:                                              ; preds = %150, %39
  %152 = load ptr, ptr %13, align 8
  %153 = call zeroext i8 @fsm_get_max_avail(ptr noundef %152)
  store i8 %153, ptr %14, align 1
  %154 = load ptr, ptr %13, align 8
  %155 = call ptr @PageGetContents(ptr noundef %154)
  %156 = getelementptr inbounds nuw %struct.FSMPageData, ptr %155, i32 0, i32 0
  store i32 0, ptr %156, align 4
  %157 = load i32, ptr %12, align 4
  call void @ReleaseBuffer(i32 noundef %157)
  %158 = load i8, ptr %14, align 1
  store i8 %158, ptr %6, align 1
  store i32 1, ptr %15, align 4
  br label %159

159:                                              ; preds = %151, %35
  call void @llvm.lifetime.end.p0(i64 1, ptr %14) #8
  call void @llvm.lifetime.end.p0(i64 8, ptr %13) #8
  call void @llvm.lifetime.end.p0(i64 4, ptr %12) #8
  %160 = load i8, ptr %6, align 1
  ret i8 %160
}