; Function Attrs: nounwind uwtable
define internal fastcc zeroext i8 @fsm_vacuum_page(ptr noundef %0, i64 %1, i32 noundef %2, i32 noundef %3, ptr noundef nonnull writeonly captures(none) initializes((0, 1)) %4) unnamed_addr #0 {
  %6 = alloca i8, align 1
  %.sroa.042.0.extract.trunc = trunc i64 %1 to i32
  %.sroa.549.0.extract.shift = lshr i64 %1, 32
  %.sroa.549.0.extract.trunc = trunc nuw i64 %.sroa.549.0.extract.shift to i32
  %7 = tail call fastcc i32 @fsm_readbuf(ptr noundef %0, i64 %1, i1 noundef zeroext false)
  %.not74 = icmp eq i32 %7, 0
  br i1 %.not74, label %8, label %9

8:                                                ; preds = %5
  store i8 1, ptr %4, align 1
  br label %64

9:                                                ; preds = %5
  store i8 0, ptr %4, align 1
  %10 = icmp slt i32 %7, 0
  br i1 %10, label %11, label %17

11:                                               ; preds = %9
  %12 = load ptr, ptr @LocalBufferBlockPointers, align 8
  %13 = xor i32 %7, -1
  %14 = zext nneg i32 %13 to i64
  %15 = getelementptr inbounds nuw ptr, ptr %12, i64 %14
  %16 = load ptr, ptr %15, align 8
  br label %BufferGetPage.exit

17:                                               ; preds = %9
  %18 = load ptr, ptr @BufferBlocks, align 8
  %19 = add nsw i32 %7, -1
  %20 = zext nneg i32 %19 to i64
  %21 = shl nuw nsw i64 %20, 13
  %22 = getelementptr inbounds nuw i8, ptr %18, i64 %21
  br label %BufferGetPage.exit

BufferGetPage.exit:                               ; preds = %11, %17
  %.0.i.i = phi ptr [ %16, %11 ], [ %22, %17 ]
  %23 = icmp sgt i32 %.sroa.042.0.extract.trunc, 0
  br i1 %23, label %.lr.ph.preheader, label %61

.lr.ph.preheader:                                 ; preds = %BufferGetPage.exit
  call void @llvm.lifetime.start.p0(i64 1, ptr nonnull %6) #8
  store i8 0, ptr %6, align 1
  %24 = add i32 %3, -1
  %25 = udiv i32 %24, 4069
  %.sroa.2.0.insert.ext.i66 = zext nneg i32 %25 to i64
  %26 = udiv i32 %2, 4069
  %.sroa.2.0.insert.ext.i = zext nneg i32 %26 to i64
  %.sroa.2.0.insert.shift.i = shl nuw nsw i64 %.sroa.2.0.insert.ext.i, 32
  br label %.lr.ph

.lr.ph:                                           ; preds = %.lr.ph.preheader, %.lr.ph
  %.sroa.018.0.in77 = phi i64 [ %.sroa.02.0.insert.insert.i, %.lr.ph ], [ %.sroa.2.0.insert.shift.i, %.lr.ph.preheader ]
  %.sroa.013.0.in76 = phi i64 [ %29, %.lr.ph ], [ %.sroa.2.0.insert.ext.i66, %.lr.ph.preheader ]
  %27 = add nuw nsw i64 %.sroa.018.0.in77, 1
  %28 = udiv i64 %.sroa.018.0.in77, 17476221927424
  %.sroa.23.0.insert.ext.i = shl nuw nsw i64 %28, 32
  %.sroa.02.0.insert.ext.i = and i64 %27, 4294967295
  %.sroa.02.0.insert.insert.i = or disjoint i64 %.sroa.23.0.insert.ext.i, %.sroa.02.0.insert.ext.i
  %29 = udiv i64 %.sroa.013.0.in76, 4069
  %30 = urem i64 %.sroa.013.0.in76, 4069
  %.sroa.018.0 = trunc i64 %27 to i32
  %31 = icmp slt i32 %.sroa.018.0, %.sroa.042.0.extract.trunc
  br i1 %31, label %.lr.ph, label %._crit_edge, !llvm.loop !10

._crit_edge:                                      ; preds = %.lr.ph
  %32 = trunc nuw nsw i64 %30 to i32
  %33 = lshr i64 %.sroa.018.0.in77, 32
  %.lhs.trunc = trunc nuw i64 %33 to i32
  %34 = urem i32 %.lhs.trunc, 4069
  %.sroa.5.0 = trunc nuw nsw i64 %29 to i32
  %.sroa.6.0 = trunc nuw nsw i64 %28 to i32
  %35 = icmp eq i64 %28, %.sroa.549.0.extract.shift
  %36 = icmp sgt i32 %.sroa.6.0, %.sroa.549.0.extract.trunc
  %. = select i1 %36, i32 4069, i32 0
  %.061 = select i1 %35, i32 %34, i32 %.
  %37 = icmp eq i64 %29, %.sroa.549.0.extract.shift
  %38 = icmp sgt i32 %.sroa.5.0, %.sroa.549.0.extract.trunc
  %.65 = select i1 %38, i32 4068, i32 -1
  %.060 = select i1 %37, i32 %32, i32 %.65
  %.not83 = icmp sgt i32 %.061, %.060
  br i1 %.not83, label %._crit_edge87, label %.lr.ph86

.lr.ph86:                                         ; preds = %._crit_edge
  %39 = add i64 %1, 4294967295
  %40 = mul nuw nsw i64 %.sroa.549.0.extract.shift, 4069
  %.sroa.01.0.insert.ext.i = and i64 %39, 4294967295
  br label %41

41:                                               ; preds = %.lr.ph86, %59
  %.06284 = phi i32 [ %.061, %.lr.ph86 ], [ %60, %59 ]
  %42 = load volatile i32, ptr @InterruptPending, align 4
  %.not63 = icmp eq i32 %42, 0
  br i1 %.not63, label %44, label %43, !prof !11

43:                                               ; preds = %41
  tail call void @ProcessInterrupts() #8
  br label %44

44:                                               ; preds = %43, %41
  %45 = load i8, ptr %6, align 1, !range !8, !noundef !9
  %46 = trunc nuw i8 %45 to i1
  br i1 %46, label %53, label %47

47:                                               ; preds = %44
  %48 = and i32 %.06284, 65535
  %49 = zext nneg i32 %48 to i64
  %50 = add nuw nsw i64 %40, %49
  %.sroa.22.0.insert.ext.i = shl i64 %50, 32
  %.sroa.01.0.insert.insert.i = or disjoint i64 %.sroa.22.0.insert.ext.i, %.sroa.01.0.insert.ext.i
  %51 = call fastcc zeroext i8 @fsm_vacuum_page(ptr noundef %0, i64 %.sroa.01.0.insert.insert.i, i32 noundef %2, i32 noundef %3, ptr noundef %6)
  %52 = zext i8 %51 to i32
  br label %53

53:                                               ; preds = %44, %47
  %.059 = phi i32 [ %52, %47 ], [ 0, %44 ]
  %54 = tail call zeroext i8 @fsm_get_avail(ptr noundef %.0.i.i, i32 noundef %.06284) #8
  %55 = zext i8 %54 to i32
  %.not64 = icmp eq i32 %.059, %55
  br i1 %.not64, label %59, label %56

56:                                               ; preds = %53
  tail call void @LockBuffer(i32 noundef %7, i32 noundef 2) #8
  %57 = trunc nuw i32 %.059 to i8
  %58 = tail call zeroext i1 @fsm_set_avail(ptr noundef %.0.i.i, i32 noundef %.06284, i8 noundef zeroext %57) #8
  tail call void @MarkBufferDirtyHint(i32 noundef %7, i1 noundef zeroext false) #8
  tail call void @LockBuffer(i32 noundef %7, i32 noundef 0) #8
  br label %59

59:                                               ; preds = %56, %53
  %60 = add i32 %.06284, 1
  %exitcond.not = icmp eq i32 %.06284, %.060
  br i1 %exitcond.not, label %._crit_edge87, label %41, !llvm.loop !12

._crit_edge87:                                    ; preds = %59, %._crit_edge
  call void @llvm.lifetime.end.p0(i64 1, ptr nonnull %6) #8
  br label %61

61:                                               ; preds = %._crit_edge87, %BufferGetPage.exit
  %62 = tail call zeroext i8 @fsm_get_max_avail(ptr noundef %.0.i.i) #8
  %63 = getelementptr inbounds nuw i8, ptr %.0.i.i, i64 24
  store i32 0, ptr %63, align 4
  tail call void @ReleaseBuffer(i32 noundef %7) #8
  br label %64

64:                                               ; preds = %61, %8
  %.0 = phi i8 [ %62, %61 ], [ 0, %8 ]
  ret i8 %.0
}